ccopy_reg
_reconstructor
p0
(cpeppercompiler.system_class
System
p1
c__builtin__
object
p2
Ntp3
Rp4
(dp5
S'input_seqs'
p6
(lp7
sS'name'
p8
S'Solov'
p9
sS'lengths'
p10
ccollections
OrderedDict
p11
((lp12
(lp13
S'DTG'
p14
aI37
aa(lp15
S'C'
p16
aI21
aa(lp17
S'TBB'
p18
aI27
aatp19
Rp20
sS'components'
p21
g11
((lp22
(lp23
S'solo'
p24
ag0
(cpeppercompiler.component_class
Component
p25
g2
Ntp26
Rp27
(dp28
g6
(lp29
g0
(cpeppercompiler.DNA_classes
SuperSequence
p30
g2
Ntp31
Rp32
(dp33
S'dummy'
p34
I00
sS'wc'
p35
g0
(cpeppercompiler.DNA_classes
ReverseSuperSequence
p36
g2
Ntp37
Rp38
(dp39
g34
I00
sg35
g32
sg8
S'dtg*'
p40
sS'seq'
p41
NsS'reversed'
p42
I01
sS'prefix'
p43
S'solo-'
p44
sS'base_seqs'
p45
(lp46
g0
(cpeppercompiler.DNA_classes
ReverseSequence
p47
g2
Ntp48
Rp49
(dp50
g34
I00
sg35
g0
(cpeppercompiler.DNA_classes
Sequence
p51
g2
Ntp52
Rp53
(dp54
g34
I00
sS'const'
p55
S'HHHHHH'
p56
sg8
S'tg'
p57
sg41
Nsg42
I00
sg43
g44
sS'in_strand'
p58
I01
sS'length'
p59
I6
sS'full_name'
p60
S'solo-tg'
p61
sg35
g49
sbsg8
S'tg*'
p62
sg41
Nsg42
I01
sg43
g44
sg59
I6
sg60
S'solo-tg*'
p63
sbag0
(g47
g2
Ntp64
Rp65
(dp66
g34
I00
sg35
g0
(g51
g2
Ntp67
Rp68
(dp69
g34
I00
sg55
S'HHHHHHHHHHHHHHHHHHHHHHHHHHHHHHH'
p70
sg8
S'd'
p71
sg41
Nsg42
I00
sg43
g44
sg58
I01
sg59
I31
sg60
S'solo-d'
p72
sg35
g65
sbsg8
S'd*'
p73
sg41
Nsg42
I01
sg43
g44
sg59
I31
sg60
S'solo-d*'
p74
sbasg59
I37
sg60
S'solo-dtg*'
p75
sS'seqs'
p76
(lp77
g49
ag65
asbsg8
S'dtg'
p78
sg41
Nsg42
I00
sg59
I37
sg45
(lp79
g68
ag53
asg43
g44
sg60
S'solo-dtg'
p80
sg76
(lp81
g68
ag53
asbasg8
S'Plato_2_0'
p82
sS'input_structs'
p83
(lp84
NasS'sup_seqs'
p85
g11
((lp86
(lp87
g78
ag32
aa(lp88
S'tbb'
p89
ag0
(g30
g2
Ntp90
Rp91
(dp92
g34
I00
sg35
g0
(g36
g2
Ntp93
Rp94
(dp95
g34
I00
sg35
g91
sg8
S'tbb*'
p96
sg41
Nsg42
I01
sg43
g44
sg45
(lp97
g0
(g47
g2
Ntp98
Rp99
(dp100
g34
I00
sg35
g0
(g51
g2
Ntp101
Rp102
(dp103
g34
I00
sg55
S'CATTGCACCTTAGAGTCCGAA'
p104
sg8
S'b'
p105
sg41
Nsg42
I00
sg43
g44
sg58
I01
sg59
I21
sg60
S'solo-b'
p106
sg35
g99
sbsg8
S'b*'
p107
sg41
Nsg42
I01
sg43
g44
sg59
I21
sg60
S'solo-b*'
p108
sbag0
(g47
g2
Ntp109
Rp110
(dp111
g34
I00
sg35
g0
(g51
g2
Ntp112
Rp113
(dp114
g34
I00
sg55
S'TTCCAC'
p115
sg8
S'tb'
p116
sg41
Nsg42
I00
sg43
g44
sg58
I01
sg59
I6
sg60
S'solo-tb'
p117
sg35
g110
sbsg8
S'tb*'
p118
sg41
Nsg42
I01
sg43
g44
sg59
I6
sg60
S'solo-tb*'
p119
sbasg59
I27
sg60
S'solo-tbb*'
p120
sg76
(lp121
g99
ag110
asbsg8
g89
sg41
Nsg42
I00
sg59
I27
sg45
(lp122
g113
ag102
asg43
g44
sg60
S'solo-tbb'
p123
sg76
(lp124
g113
ag102
asbaatp125
Rp126
sS'kinetics'
p127
g11
((lp128
(lp129
S'Kin0'
p130
ag0
(cpeppercompiler.DNA_classes
Kinetics
p131
g2
Ntp132
Rp133
(dp134
S'inputs'
p135
(lp136
g0
(cpeppercompiler.DNA_classes
Structure
p137
g2
Ntp138
Rp139
(dp140
S'opt'
p141
F1.0
sg8
S'Dtg1'
p142
sg41
Nsg45
(lp143
g68
ag53
asg43
g44
sg60
S'solo-Dtg1'
p144
sS'mfe_struct'
p145
NsS'strands'
p146
(lp147
g0
(cpeppercompiler.DNA_classes
Strand
p148
g2
Ntp149
Rp150
(dp151
g34
I00
sg35
g0
(g36
g2
Ntp152
Rp153
(dp154
g34
I00
sg35
g150
sg8
S'Dtg*'
p155
sg41
Nsg42
I01
sg43
g44
sg45
(lp156
g49
ag65
asg59
I37
sg60
S'solo-Dtg*'
p157
sg76
(lp158
g49
ag65
asbsg8
S'Dtg'
p159
sg41
Nsg42
I00
sg59
I37
sg45
(lp160
g68
ag53
asg43
g44
sg60
S'solo-Dtg'
p161
sg76
(lp162
g68
ag53
asS'in_structure'
p163
I01
sbasS'struct'
p164
S'.....................................'
p165
sbag0
(g137
g2
Ntp166
Rp167
(dp168
g141
F1.0
sg8
S'N_tbB_tdD_tgDtdBtbN'
p169
sg41
Nsg45
(lp170
g0
(g51
g2
Ntp171
Rp172
(dp173
g34
I00
sg55
S'HHHHHHHHHHHHHHHHHHHHH'
p174
sg8
S'n'
p175
sg41
Nsg42
I00
sg43
g44
sg58
I01
sg59
I21
sg60
S'solo-n'
p176
sg35
g0
(g47
g2
Ntp177
Rp178
(dp179
g34
I00
sg35
g172
sg8
S'n*'
p180
sg41
Nsg42
I01
sg43
g44
sg59
I21
sg60
S'solo-n*'
p181
sbsbag113
ag102
ag0
(g51
g2
Ntp182
Rp183
(dp184
g34
I00
sg55
S'HHHHHH'
p185
sg8
S'td'
p186
sg41
Nsg42
I00
sg43
g44
sg58
I01
sg59
I6
sg60
S'solo-td'
p187
sg35
g0
(g47
g2
Ntp188
Rp189
(dp190
g34
I00
sg35
g183
sg8
S'td*'
p191
sg41
Nsg42
I01
sg43
g44
sg59
I6
sg60
S'solo-td*'
p192
sbsbag68
ag49
ag65
ag189
ag99
ag110
ag178
asg43
g44
sg60
S'solo-N_tbB_tdD_tgDtdBtbN'
p193
sg145
Nsg146
(lp194
g0
(g148
g2
Ntp195
Rp196
(dp197
g34
I00
sg35
g0
(g36
g2
Ntp198
Rp199
(dp200
g34
I00
sg35
g196
sg8
S'N*'
p201
sg41
Nsg42
I01
sg43
g44
sg45
(lp202
g178
asg59
I21
sg60
S'solo-N*'
p203
sg76
(lp204
g178
asbsg8
S'N'
p205
sg41
Nsg42
I00
sg59
I21
sg45
(lp206
g172
asg43
g44
sg60
S'solo-N'
p207
sg76
(lp208
g172
asg163
I01
sbag0
(g148
g2
Ntp209
Rp210
(dp211
g34
I00
sg35
g0
(g36
g2
Ntp212
Rp213
(dp214
g34
I00
sg35
g210
sg8
S'tbB*'
p215
sg41
Nsg42
I01
sg43
g44
sg45
(lp216
g99
ag110
asg59
I27
sg60
S'solo-tbB*'
p217
sg76
(lp218
g99
ag110
asbsg8
S'tbB'
p219
sg41
Nsg42
I00
sg59
I27
sg45
(lp220
g113
ag102
asg43
g44
sg60
S'solo-tbB'
p221
sg76
(lp222
g113
ag102
asg163
I01
sbag0
(g148
g2
Ntp223
Rp224
(dp225
g34
I00
sg35
g0
(g36
g2
Ntp226
Rp227
(dp228
g34
I00
sg35
g224
sg8
S'tdD*'
p229
sg41
Nsg42
I01
sg43
g44
sg45
(lp230
g65
ag189
asg59
I37
sg60
S'solo-tdD*'
p231
sg76
(lp232
g65
ag189
asbsg8
S'tdD'
p233
sg41
Nsg42
I00
sg59
I37
sg45
(lp234
g183
ag68
asg43
g44
sg60
S'solo-tdD'
p235
sg76
(lp236
g183
ag68
asg163
I01
sbag0
(g148
g2
Ntp237
Rp238
(dp239
g34
I00
sg35
g0
(g36
g2
Ntp240
Rp241
(dp242
g34
I00
sg35
g238
sg8
S'comp_tgDtdBtbN*'
p243
sg41
Nsg42
I01
sg43
g44
sg45
(lp244
g172
ag113
ag102
ag183
ag68
ag53
asg59
I91
sg60
S'solo-comp_tgDtdBtbN*'
p245
sg76
(lp246
g172
ag113
ag102
ag183
ag68
ag53
asbsg8
S'comp_tgDtdBtbN'
p247
sg41
Nsg42
I00
sg59
I91
sg45
(lp248
g49
ag65
ag189
ag99
ag110
ag178
asg43
g44
sg60
S'solo-comp_tgDtdBtbN'
p249
sg76
(lp250
g49
ag65
ag189
ag99
ag110
ag178
asg163
I01
sbasg164
S'(((((((((((((((((((((+(((((((((((((((((((((((((((+(((((((((((((((((((((((((((((((((((((+......)))))))))))))))))))))))))))))))))))))))))))))))))))))))))))))))))))))))))))))))))))))'
p251
sbasg8
g130
sS'outputs'
p252
(lp253
g0
(g137
g2
Ntp254
Rp255
(dp256
g141
F1.0
sg8
S'N_tbB_Dtg_tgDtdBtbN'
p257
sg41
Nsg45
(lp258
g172
ag113
ag102
ag68
ag53
ag49
ag65
ag189
ag99
ag110
ag178
asg43
g44
sg60
S'solo-N_tbB_Dtg_tgDtdBtbN'
p259
sg145
Nsg146
(lp260
g196
ag210
ag150
ag238
asg164
S'(((((((((((((((((((((+(((((((((((((((((((((((((((+(((((((((((((((((((((((((((((((((((((+)))))))))))))))))))))))))))))))))))))......))))))))))))))))))))))))))))))))))))))))))))))))'
p261
sbag0
(g137
g2
Ntp262
Rp263
(dp264
g141
F1.0
sg8
S'tdD1'
p265
sg41
Nsg45
(lp266
g183
ag68
asg43
g44
sg60
S'solo-tdD1'
p267
sg145
Nsg146
(lp268
g224
asg164
S'.....................................'
p269
sbasS'high'
p270
Finf
sg43
g44
sS'low'
p271
I0
sg60
S'solo-Kin0'
p272
sbaa(lp273
S'Kin1'
p274
ag0
(g131
g2
Ntp275
Rp276
(dp277
g135
(lp278
g0
(g137
g2
Ntp279
Rp280
(dp281
g141
F1.0
sg8
S'Btd1'
p282
sg41
Nsg45
(lp283
g102
ag183
asg43
g44
sg60
S'solo-Btd1'
p284
sg145
Nsg146
(lp285
g0
(g148
g2
Ntp286
Rp287
(dp288
g34
I00
sg35
g0
(g36
g2
Ntp289
Rp290
(dp291
g34
I00
sg35
g287
sg8
S'Btd*'
p292
sg41
Nsg42
I01
sg43
g44
sg45
(lp293
g189
ag99
asg59
I27
sg60
S'solo-Btd*'
p294
sg76
(lp295
g189
ag99
asbsg8
S'Btd'
p296
sg41
Nsg42
I00
sg59
I27
sg45
(lp297
g102
ag183
asg43
g44
sg60
S'solo-Btd'
p298
sg76
(lp299
g102
ag183
asg163
I01
sbasg164
S'...........................'
p300
sbag255
asg8
g274
sg252
(lp301
g0
(g137
g2
Ntp302
Rp303
(dp304
g141
F1.0
sg8
S'N_Btd_Dtg_tgDtdBtbN'
p305
sg41
Nsg45
(lp306
g172
ag102
ag183
ag68
ag53
ag49
ag65
ag189
ag99
ag110
ag178
asg43
g44
sg60
S'solo-N_Btd_Dtg_tgDtdBtbN'
p307
sg145
Nsg146
(lp308
g196
ag287
ag150
ag238
asg164
S'(((((((((((((((((((((+(((((((((((((((((((((((((((+(((((((((((((((((((((((((((((((((((((+))))))))))))))))))))))))))))))))))))))))))))))))))))))))))))))))......)))))))))))))))))))))'
p309
sbag0
(g137
g2
Ntp310
Rp311
(dp312
g141
F1.0
sg8
S'tbB1'
p313
sg41
Nsg45
(lp314
g113
ag102
asg43
g44
sg60
S'solo-tbB1'
p315
sg145
Nsg146
(lp316
g210
asg164
S'...........................'
p317
sbasg270
Finf
sg43
g44
sg271
I0
sg60
S'solo-Kin1'
p318
sbaa(lp319
S'Kin2'
p320
ag0
(g131
g2
Ntp321
Rp322
(dp323
g135
(lp324
g0
(g137
g2
Ntp325
Rp326
(dp327
g141
F1.0
sg8
S'Ntb1'
p328
sg41
Nsg45
(lp329
g172
ag113
asg43
g44
sg60
S'solo-Ntb1'
p330
sg145
Nsg146
(lp331
g0
(g148
g2
Ntp332
Rp333
(dp334
g34
I00
sg35
g0
(g36
g2
Ntp335
Rp336
(dp337
g34
I00
sg35
g333
sg8
S'Ntb*'
p338
sg41
Nsg42
I01
sg43
g44
sg45
(lp339
g110
ag178
asg59
I27
sg60
S'solo-Ntb*'
p340
sg76
(lp341
g110
ag178
asbsg8
S'Ntb'
p342
sg41
Nsg42
I00
sg59
I27
sg45
(lp343
g172
ag113
asg43
g44
sg60
S'solo-Ntb'
p344
sg76
(lp345
g172
ag113
asg163
I01
sbasg164
S'...........................'
p346
sbag303
asg8
g320
sg252
(lp347
g0
(g137
g2
Ntp348
Rp349
(dp350
g141
F1.0
sg8
S'Ntb_Btd_Dtg_tgDtdBtbN'
p351
sg41
Nsg45
(lp352
g172
ag113
ag102
ag183
ag68
ag53
ag49
ag65
ag189
ag99
ag110
ag178
asg43
g44
sg60
S'solo-Ntb_Btd_Dtg_tgDtdBtbN'
p353
sg145
Nsg146
(lp354
g333
ag287
ag150
ag238
asg164
S'(((((((((((((((((((((((((((+(((((((((((((((((((((((((((+(((((((((((((((((((((((((((((((((((((+)))))))))))))))))))))))))))))))))))))))))))))))))))))))))))))))))))))))))))))))))))))))))))'
p355
sbag0
(g137
g2
Ntp356
Rp357
(dp358
g141
F1.0
sg8
S'N1'
p359
sg41
Nsg45
(lp360
g172
asg43
g44
sg60
S'solo-N1'
p361
sg145
Nsg146
(lp362
g196
asg164
S'.....................'
p363
sbasg270
Finf
sg43
g44
sg271
I0
sg60
S'solo-Kin2'
p364
sbaa(lp365
S'Kin3'
p366
ag0
(g131
g2
Ntp367
Rp368
(dp369
g135
(lp370
g0
(g137
g2
Ntp371
Rp372
(dp373
g141
F1.0
sg8
S'taA1'
p374
sg41
Nsg45
(lp375
g0
(g51
g2
Ntp376
Rp377
(dp378
g34
I00
sg55
S'CTGCTA'
p379
sg8
S'ta'
p380
sg41
Nsg42
I00
sg43
g44
sg58
I01
sg59
I6
sg60
S'solo-ta'
p381
sg35
g0
(g47
g2
Ntp382
Rp383
(dp384
g34
I00
sg35
g377
sg8
S'ta*'
p385
sg41
Nsg42
I01
sg43
g44
sg59
I6
sg60
S'solo-ta*'
p386
sbsbag0
(g51
g2
Ntp387
Rp388
(dp389
g34
I00
sg55
S'CATTGCTTCTACGAGTCATCC'
p390
sg8
S'a'
p391
sg41
Nsg42
I00
sg43
g44
sg58
I01
sg59
I21
sg60
S'solo-a'
p392
sg35
g0
(g47
g2
Ntp393
Rp394
(dp395
g34
I00
sg35
g388
sg8
S'a*'
p396
sg41
Nsg42
I01
sg43
g44
sg59
I21
sg60
S'solo-a*'
p397
sbsbasg43
g44
sg60
S'solo-taA1'
p398
sg145
Nsg146
(lp399
g0
(g148
g2
Ntp400
Rp401
(dp402
g34
I00
sg35
g0
(g36
g2
Ntp403
Rp404
(dp405
g34
I00
sg35
g401
sg8
S'taA*'
p406
sg41
Nsg42
I01
sg43
g44
sg45
(lp407
g394
ag383
asg59
I27
sg60
S'solo-taA*'
p408
sg76
(lp409
g394
ag383
asbsg8
S'taA'
p410
sg41
Nsg42
I00
sg59
I27
sg45
(lp411
g377
ag388
asg43
g44
sg60
S'solo-taA'
p412
sg76
(lp413
g377
ag388
asg163
I01
sbasg164
S'...........................'
p414
sbag167
asg8
g366
sg252
(lp415
g0
(g137
g2
Ntp416
Rp417
(dp418
g141
F1.0
sg8
S'Atb1'
p419
sg41
Nsg45
(lp420
g388
ag113
asg43
g44
sg60
S'solo-Atb1'
p421
sg145
Nsg146
(lp422
g0
(g148
g2
Ntp423
Rp424
(dp425
g34
I00
sg35
g0
(g36
g2
Ntp426
Rp427
(dp428
g34
I00
sg35
g424
sg8
S'Atb*'
p429
sg41
Nsg42
I01
sg43
g44
sg45
(lp430
g110
ag394
asg59
I27
sg60
S'solo-Atb*'
p431
sg76
(lp432
g110
ag394
asbsg8
S'Atb'
p433
sg41
Nsg42
I00
sg59
I27
sg45
(lp434
g388
ag113
asg43
g44
sg60
S'solo-Atb'
p435
sg76
(lp436
g388
ag113
asg163
I01
sbasg164
S'...........................'
p437
sbag0
(g137
g2
Ntp438
Rp439
(dp440
g141
F1.0
sg8
S'taA_Btr_Rtq_tqRtrBtbAta'
p441
sg41
Nsg45
(lp442
g377
ag388
ag102
ag0
(g51
g2
Ntp443
Rp444
(dp445
g34
I00
sg55
S'TCCTAC'
p446
sg8
S'tr'
p447
sg41
Nsg42
I00
sg43
g44
sg58
I01
sg59
I6
sg60
S'solo-tr'
p448
sg35
g0
(g47
g2
Ntp449
Rp450
(dp451
g34
I00
sg35
g444
sg8
S'tr*'
p452
sg41
Nsg42
I01
sg43
g44
sg59
I6
sg60
S'solo-tr*'
p453
sbsbag0
(g51
g2
Ntp454
Rp455
(dp456
g34
I00
sg55
S'CATTGCTTAACCGAGTCTCAC'
p457
sg8
S'r'
p458
sg41
Nsg42
I00
sg43
g44
sg58
I01
sg59
I21
sg60
S'solo-r'
p459
sg35
g0
(g47
g2
Ntp460
Rp461
(dp462
g34
I00
sg35
g455
sg8
S'r*'
p463
sg41
Nsg42
I01
sg43
g44
sg59
I21
sg60
S'solo-r*'
p464
sbsbag0
(g51
g2
Ntp465
Rp466
(dp467
g34
I00
sg55
S'AACCAG'
p468
sg8
S'tq'
p469
sg41
Nsg42
I00
sg43
g44
sg58
I01
sg59
I6
sg60
S'solo-tq'
p470
sg35
g0
(g47
g2
Ntp471
Rp472
(dp473
g34
I00
sg35
g466
sg8
S'tq*'
p474
sg41
Nsg42
I01
sg43
g44
sg59
I6
sg60
S'solo-tq*'
p475
sbsbag472
ag461
ag450
ag99
ag110
ag394
ag383
asg43
g44
sg60
S'solo-taA_Btr_Rtq_tqRtrBtbAta'
p476
sg145
Nsg146
(lp477
g401
ag0
(g148
g2
Ntp478
Rp479
(dp480
g34
I00
sg35
g0
(g36
g2
Ntp481
Rp482
(dp483
g34
I00
sg35
g479
sg8
S'Btr*'
p484
sg41
Nsg42
I01
sg43
g44
sg45
(lp485
g450
ag99
asg59
I27
sg60
S'solo-Btr*'
p486
sg76
(lp487
g450
ag99
asbsg8
S'Btr'
p488
sg41
Nsg42
I00
sg59
I27
sg45
(lp489
g102
ag444
asg43
g44
sg60
S'solo-Btr'
p490
sg76
(lp491
g102
ag444
asg163
I01
sbag0
(g148
g2
Ntp492
Rp493
(dp494
g34
I00
sg35
g0
(g36
g2
Ntp495
Rp496
(dp497
g34
I00
sg35
g493
sg8
S'Rtq*'
p498
sg41
Nsg42
I01
sg43
g44
sg45
(lp499
g472
ag461
asg59
I27
sg60
S'solo-Rtq*'
p500
sg76
(lp501
g472
ag461
asbsg8
S'Rtq'
p502
sg41
Nsg42
I00
sg59
I27
sg45
(lp503
g455
ag466
asg43
g44
sg60
S'solo-Rtq'
p504
sg76
(lp505
g455
ag466
asg163
I01
sbag0
(g148
g2
Ntp506
Rp507
(dp508
g34
I00
sg35
g0
(g36
g2
Ntp509
Rp510
(dp511
g34
I00
sg35
g507
sg8
S'comp_tqRtrBtbAta*'
p512
sg41
Nsg42
I01
sg43
g44
sg45
(lp513
g377
ag388
ag113
ag102
ag444
ag455
ag466
asg59
I87
sg60
S'solo-comp_tqRtrBtbAta*'
p514
sg76
(lp515
g377
ag388
ag113
ag102
ag444
ag455
ag466
asbsg8
S'comp_tqRtrBtbAta'
p516
sg41
Nsg42
I00
sg59
I87
sg45
(lp517
g472
ag461
ag450
ag99
ag110
ag394
ag383
asg43
g44
sg60
S'solo-comp_tqRtrBtbAta'
p518
sg76
(lp519
g472
ag461
ag450
ag99
ag110
ag394
ag383
asg163
I01
sbasg164
S'(((((((((((((((((((((((((((+(((((((((((((((((((((((((((+(((((((((((((((((((((((((((+))))))))))))))))))))))))))))))))))))))))))))))))))))))......)))))))))))))))))))))))))))'
p520
sbasg270
Finf
sg43
g44
sg271
I0
sg60
S'solo-Kin3'
p521
sbaa(lp522
S'Kin4'
p523
ag0
(g131
g2
Ntp524
Rp525
(dp526
g135
(lp527
g311
ag439
asg8
g523
sg252
(lp528
g0
(g137
g2
Ntp529
Rp530
(dp531
g141
F1.0
sg8
S'Btr1'
p532
sg41
Nsg45
(lp533
g102
ag444
asg43
g44
sg60
S'solo-Btr1'
p534
sg145
Nsg146
(lp535
g479
asg164
S'...........................'
p536
sbag0
(g137
g2
Ntp537
Rp538
(dp539
g141
F1.0
sg8
S'taA_tbB_Rtq_tqRtrBtbAta'
p540
sg41
Nsg45
(lp541
g377
ag388
ag113
ag102
ag455
ag466
ag472
ag461
ag450
ag99
ag110
ag394
ag383
asg43
g44
sg60
S'solo-taA_tbB_Rtq_tqRtrBtbAta'
p542
sg145
Nsg146
(lp543
g401
ag210
ag493
ag507
asg164
S'(((((((((((((((((((((((((((+(((((((((((((((((((((((((((+(((((((((((((((((((((((((((+)))))))))))))))))))))))))))......))))))))))))))))))))))))))))))))))))))))))))))))))))))'
p544
sbasg270
Finf
sg43
g44
sg271
I0
sg60
S'solo-Kin4'
p545
sbaa(lp546
S'Kin5'
p547
ag0
(g131
g2
Ntp548
Rp549
(dp550
g135
(lp551
g0
(g137
g2
Ntp552
Rp553
(dp554
g141
F1.0
sg8
S'trR1'
p555
sg41
Nsg45
(lp556
g444
ag455
asg43
g44
sg60
S'solo-trR1'
p557
sg145
Nsg146
(lp558
g0
(g148
g2
Ntp559
Rp560
(dp561
g34
I00
sg35
g0
(g36
g2
Ntp562
Rp563
(dp564
g34
I00
sg35
g560
sg8
S'trR*'
p565
sg41
Nsg42
I01
sg43
g44
sg45
(lp566
g461
ag450
asg59
I27
sg60
S'solo-trR*'
p567
sg76
(lp568
g461
ag450
asbsg8
S'trR'
p569
sg41
Nsg42
I00
sg59
I27
sg45
(lp570
g444
ag455
asg43
g44
sg60
S'solo-trR'
p571
sg76
(lp572
g444
ag455
asg163
I01
sbasg164
S'...........................'
p573
sbag538
asg8
g547
sg252
(lp574
g0
(g137
g2
Ntp575
Rp576
(dp577
g141
F1.0
sg8
S'Rtq1'
p578
sg41
Nsg45
(lp579
g455
ag466
asg43
g44
sg60
S'solo-Rtq1'
p580
sg145
Nsg146
(lp581
g493
asg164
S'...........................'
p582
sbag0
(g137
g2
Ntp583
Rp584
(dp585
g141
F1.0
sg8
S'taA_tbB_trR_tqRtrBtbAta'
p586
sg41
Nsg45
(lp587
g377
ag388
ag113
ag102
ag444
ag455
ag472
ag461
ag450
ag99
ag110
ag394
ag383
asg43
g44
sg60
S'solo-taA_tbB_trR_tqRtrBtbAta'
p588
sg145
Nsg146
(lp589
g401
ag210
ag560
ag507
asg164
S'(((((((((((((((((((((((((((+(((((((((((((((((((((((((((+(((((((((((((((((((((((((((+......)))))))))))))))))))))))))))))))))))))))))))))))))))))))))))))))))))))))))))))))))'
p590
sbasg270
Finf
sg43
g44
sg271
I0
sg60
S'solo-Kin5'
p591
sbaa(lp592
S'Kin6'
p593
ag0
(g131
g2
Ntp594
Rp595
(dp596
g135
(lp597
g576
ag0
(g137
g2
Ntp598
Rp599
(dp600
g141
F1.0
sg8
S'I_tcC_tbB_trR_tqRtrBtbCtcI'
p601
sg41
Nsg45
(lp602
g0
(g51
g2
Ntp603
Rp604
(dp605
g34
I00
sg55
S'CTGCCATCATAAGAGTCACCA'
p606
sg8
S'i'
p607
sg41
Nsg42
I00
sg43
g44
sg58
I01
sg59
I21
sg60
S'solo-i'
p608
sg35
g0
(g47
g2
Ntp609
Rp610
(dp611
g34
I00
sg35
g604
sg8
S'i*'
p612
sg41
Nsg42
I01
sg43
g44
sg59
I21
sg60
S'solo-i*'
p613
sbsbag0
(g51
g2
Ntp614
Rp615
(dp616
g34
I00
sg55
S'TACCCA'
p617
sg8
S'tc'
p618
sg41
Nsg42
I00
sg43
g44
sg58
I01
sg59
I6
sg60
S'solo-tc'
p619
sg35
g0
(g47
g2
Ntp620
Rp621
(dp622
g34
I00
sg35
g615
sg8
S'tc*'
p623
sg41
Nsg42
I01
sg43
g44
sg59
I6
sg60
S'solo-tc*'
p624
sbsbag0
(g51
g2
Ntp625
Rp626
(dp627
g34
I00
sg55
S'CATTGCCACATCGAGTCCCTT'
p628
sg8
S'c'
p629
sg41
Nsg42
I00
sg43
g44
sg58
I01
sg59
I21
sg60
S'solo-c'
p630
sg35
g0
(g47
g2
Ntp631
Rp632
(dp633
g34
I00
sg35
g626
sg8
S'c*'
p634
sg41
Nsg42
I01
sg43
g44
sg59
I21
sg60
S'solo-c*'
p635
sbsbag113
ag102
ag444
ag455
ag472
ag461
ag450
ag99
ag110
ag632
ag621
ag610
asg43
g44
sg60
S'solo-I_tcC_tbB_trR_tqRtrBtbCtcI'
p636
sg145
Nsg146
(lp637
g0
(g148
g2
Ntp638
Rp639
(dp640
g34
I00
sg35
g0
(g36
g2
Ntp641
Rp642
(dp643
g34
I00
sg35
g639
sg8
S'I*'
p644
sg41
Nsg42
I01
sg43
g44
sg45
(lp645
g610
asg59
I21
sg60
S'solo-I*'
p646
sg76
(lp647
g610
asbsg8
S'I'
p648
sg41
Nsg42
I00
sg59
I21
sg45
(lp649
g604
asg43
g44
sg60
S'solo-I'
p650
sg76
(lp651
g604
asg163
I01
sbag0
(g148
g2
Ntp652
Rp653
(dp654
g34
I00
sg35
g0
(g36
g2
Ntp655
Rp656
(dp657
g34
I00
sg35
g653
sg8
S'tcC*'
p658
sg41
Nsg42
I01
sg43
g44
sg45
(lp659
g632
ag621
asg59
I27
sg60
S'solo-tcC*'
p660
sg76
(lp661
g632
ag621
asbsg8
S'tcC'
p662
sg41
Nsg42
I00
sg59
I27
sg45
(lp663
g615
ag626
asg43
g44
sg60
S'solo-tcC'
p664
sg76
(lp665
g615
ag626
asg163
I01
sbag210
ag560
ag0
(g148
g2
Ntp666
Rp667
(dp668
g34
I00
sg35
g0
(g36
g2
Ntp669
Rp670
(dp671
g34
I00
sg35
g667
sg8
S'comp_tqRtrBtbCtcI*'
p672
sg41
Nsg42
I01
sg43
g44
sg45
(lp673
g604
ag615
ag626
ag113
ag102
ag444
ag455
ag466
asg59
I108
sg60
S'solo-comp_tqRtrBtbCtcI*'
p674
sg76
(lp675
g604
ag615
ag626
ag113
ag102
ag444
ag455
ag466
asbsg8
S'comp_tqRtrBtbCtcI'
p676
sg41
Nsg42
I00
sg59
I108
sg45
(lp677
g472
ag461
ag450
ag99
ag110
ag632
ag621
ag610
asg43
g44
sg60
S'solo-comp_tqRtrBtbCtcI'
p678
sg76
(lp679
g472
ag461
ag450
ag99
ag110
ag632
ag621
ag610
asg163
I01
sbasg164
S'(((((((((((((((((((((+(((((((((((((((((((((((((((+(((((((((((((((((((((((((((+(((((((((((((((((((((((((((+......))))))))))))))))))))))))))))))))))))))))))))))))))))))))))))))))))))))))))))))))))))))))))))))))))))))'
p680
sbasg8
g593
sg252
(lp681
g553
ag0
(g137
g2
Ntp682
Rp683
(dp684
g141
F1.0
sg8
S'I_tcC_tbB_Rtq_tqRtrBtbCtcI'
p685
sg41
Nsg45
(lp686
g604
ag615
ag626
ag113
ag102
ag455
ag466
ag472
ag461
ag450
ag99
ag110
ag632
ag621
ag610
asg43
g44
sg60
S'solo-I_tcC_tbB_Rtq_tqRtrBtbCtcI'
p687
sg145
Nsg146
(lp688
g639
ag653
ag210
ag493
ag667
asg164
S'(((((((((((((((((((((+(((((((((((((((((((((((((((+(((((((((((((((((((((((((((+(((((((((((((((((((((((((((+)))))))))))))))))))))))))))......)))))))))))))))))))))))))))))))))))))))))))))))))))))))))))))))))))))))))))'
p689
sbasg270
Finf
sg43
g44
sg271
I0
sg60
S'solo-Kin6'
p690
sbaa(lp691
S'Kin7'
p692
ag0
(g131
g2
Ntp693
Rp694
(dp695
g135
(lp696
g530
ag683
asg8
g692
sg252
(lp697
g311
ag0
(g137
g2
Ntp698
Rp699
(dp700
g141
F1.0
sg8
S'I_tcC_Btr_Rtq_tqRtrBtbCtcI'
p701
sg41
Nsg45
(lp702
g604
ag615
ag626
ag102
ag444
ag455
ag466
ag472
ag461
ag450
ag99
ag110
ag632
ag621
ag610
asg43
g44
sg60
S'solo-I_tcC_Btr_Rtq_tqRtrBtbCtcI'
p703
sg145
Nsg146
(lp704
g639
ag653
ag479
ag493
ag667
asg164
S'(((((((((((((((((((((+(((((((((((((((((((((((((((+(((((((((((((((((((((((((((+(((((((((((((((((((((((((((+))))))))))))))))))))))))))))))))))))))))))))))))))))))......))))))))))))))))))))))))))))))))))))))))))))))))'
p705
sbasg270
Finf
sg43
g44
sg271
I0
sg60
S'solo-Kin7'
p706
sbaa(lp707
S'Kin8'
p708
ag0
(g131
g2
Ntp709
Rp710
(dp711
g135
(lp712
g530
ag699
asg8
g708
sg252
(lp713
g0
(g137
g2
Ntp714
Rp715
(dp716
g141
F1.0
sg8
S'tcC1'
p717
sg41
Nsg45
(lp718
g615
ag626
asg43
g44
sg60
S'solo-tcC1'
p719
sg145
Nsg146
(lp720
g653
asg164
S'...........................'
p721
sbag0
(g137
g2
Ntp722
Rp723
(dp724
g141
F1.0
sg8
S'I_Ctb_Btr_Rtq_tqRtrBtbCtcI'
p725
sg41
Nsg45
(lp726
g604
ag626
ag113
ag102
ag444
ag455
ag466
ag472
ag461
ag450
ag99
ag110
ag632
ag621
ag610
asg43
g44
sg60
S'solo-I_Ctb_Btr_Rtq_tqRtrBtbCtcI'
p727
sg145
Nsg146
(lp728
g639
ag0
(g148
g2
Ntp729
Rp730
(dp731
g34
I00
sg35
g0
(g36
g2
Ntp732
Rp733
(dp734
g34
I00
sg35
g730
sg8
S'Ctb*'
p735
sg41
Nsg42
I01
sg43
g44
sg45
(lp736
g110
ag632
asg59
I27
sg60
S'solo-Ctb*'
p737
sg76
(lp738
g110
ag632
asbsg8
S'Ctb'
p739
sg41
Nsg42
I00
sg59
I27
sg45
(lp740
g626
ag113
asg43
g44
sg60
S'solo-Ctb'
p741
sg76
(lp742
g626
ag113
asg163
I01
sbag479
ag493
ag667
asg164
S'(((((((((((((((((((((+(((((((((((((((((((((((((((+(((((((((((((((((((((((((((+(((((((((((((((((((((((((((+)))))))))))))))))))))))))))))))))))))))))))))))))))))))))))))))))))))))))))))))))......)))))))))))))))))))))'
p743
sbasg270
Finf
sg43
g44
sg271
I0
sg60
S'solo-Kin8'
p744
sbaa(lp745
S'Kin9'
p746
ag0
(g131
g2
Ntp747
Rp748
(dp749
g135
(lp750
g0
(g137
g2
Ntp751
Rp752
(dp753
g141
F1.0
sg8
S'Itc1'
p754
sg41
Nsg45
(lp755
g604
ag615
asg43
g44
sg60
S'solo-Itc1'
p756
sg145
Nsg146
(lp757
g0
(g148
g2
Ntp758
Rp759
(dp760
g34
I00
sg35
g0
(g36
g2
Ntp761
Rp762
(dp763
g34
I00
sg35
g759
sg8
S'Itc*'
p764
sg41
Nsg42
I01
sg43
g44
sg45
(lp765
g621
ag610
asg59
I27
sg60
S'solo-Itc*'
p766
sg76
(lp767
g621
ag610
asbsg8
S'Itc'
p768
sg41
Nsg42
I00
sg59
I27
sg45
(lp769
g604
ag615
asg43
g44
sg60
S'solo-Itc'
p770
sg76
(lp771
g604
ag615
asg163
I01
sbasg164
S'...........................'
p772
sbag723
asg8
g746
sg252
(lp773
g0
(g137
g2
Ntp774
Rp775
(dp776
g141
F1.0
sg8
S'I1'
p777
sg41
Nsg45
(lp778
g604
asg43
g44
sg60
S'solo-I1'
p779
sg145
Nsg146
(lp780
g639
asg164
S'.....................'
p781
sbag0
(g137
g2
Ntp782
Rp783
(dp784
g141
F1.0
sg8
S'Itc_Ctb_Btr_Rtq_tqRtrBtbCtcI'
p785
sg41
Nsg45
(lp786
g604
ag615
ag626
ag113
ag102
ag444
ag455
ag466
ag472
ag461
ag450
ag99
ag110
ag632
ag621
ag610
asg43
g44
sg60
S'solo-Itc_Ctb_Btr_Rtq_tqRtrBtbCtcI'
p787
sg145
Nsg146
(lp788
g759
ag730
ag479
ag493
ag667
asg164
S'(((((((((((((((((((((((((((+(((((((((((((((((((((((((((+(((((((((((((((((((((((((((+(((((((((((((((((((((((((((+))))))))))))))))))))))))))))))))))))))))))))))))))))))))))))))))))))))))))))))))))))))))))))))))))))))))))))'
p789
sbasg270
Finf
sg43
g44
sg271
I0
sg60
S'solo-Kin9'
p790
sbaa(lp791
S'Kin10'
p792
ag0
(g131
g2
Ntp793
Rp794
(dp795
g135
(lp796
g715
ag0
(g137
g2
Ntp797
Rp798
(dp799
g141
F1.0
sg8
S'C_Ctc'
p800
sg41
Nsg45
(lp801
g626
ag632
ag621
asg43
g44
sg60
S'solo-C_Ctc'
p802
sg145
Nsg146
(lp803
g0
(g148
g2
Ntp804
Rp805
(dp806
g34
I00
sg35
g0
(g36
g2
Ntp807
Rp808
(dp809
g34
I00
sg35
g805
sg8
S'C*'
p810
sg41
Nsg42
I01
sg43
g44
sg45
(lp811
g632
asg59
I21
sg60
S'solo-C*'
p812
sg76
(lp813
g632
asbsg8
g16
sg41
Nsg42
I00
sg59
I21
sg45
(lp814
g626
asg43
g44
sg60
S'solo-C'
p815
sg76
(lp816
g626
asg163
I01
sbag0
(g148
g2
Ntp817
Rp818
(dp819
g34
I00
sg35
g0
(g36
g2
Ntp820
Rp821
(dp822
g34
I00
sg35
g818
sg8
S'comp_Ctc*'
p823
sg41
Nsg42
I01
sg43
g44
sg45
(lp824
g615
ag626
asg59
I27
sg60
S'solo-comp_Ctc*'
p825
sg76
(lp826
g615
ag626
asbsg8
S'comp_Ctc'
p827
sg41
Nsg42
I00
sg59
I27
sg45
(lp828
g632
ag621
asg43
g44
sg60
S'solo-comp_Ctc'
p829
sg76
(lp830
g632
ag621
asg163
I01
sbasg164
S'(((((((((((((((((((((+)))))))))))))))))))))......'
p831
sbasg8
g792
sg252
(lp832
g0
(g137
g2
Ntp833
Rp834
(dp835
g141
F1.0
sg8
S'tcC_Ctc'
p836
sg41
Nsg45
(lp837
g615
ag626
ag632
ag621
asg43
g44
sg60
S'solo-tcC_Ctc'
p838
sg145
Nsg146
(lp839
g653
ag818
asg164
S'(((((((((((((((((((((((((((+)))))))))))))))))))))))))))'
p840
sbag0
(g137
g2
Ntp841
Rp842
(dp843
g141
F1.0
sg8
S'C1'
p844
sg41
Nsg45
(lp845
g626
asg43
g44
sg60
S'solo-C1'
p846
sg145
Nsg146
(lp847
g805
asg164
S'.....................'
p848
sbasg270
Finf
sg43
g44
sg271
I0
sg60
S'solo-Kin10'
p849
sbaatp850
Rp851
sg45
g11
((lp852
(lp853
g380
ag377
aa(lp854
g116
ag113
aa(lp855
g447
ag444
aa(lp856
g618
ag615
aa(lp857
g469
ag466
aa(lp858
g186
ag183
aa(lp859
g57
ag53
aa(lp860
g458
ag455
aa(lp861
g175
ag172
aa(lp862
g629
ag626
aa(lp863
g391
ag388
aa(lp864
g105
ag102
aa(lp865
g607
ag604
aa(lp866
g71
ag68
aatp867
Rp868
sS'kin_num'
p869
I11
sg43
g44
sS'params'
p870
(lp871
S't'
p872
aS'bm'
p873
asg76
g11
((lp874
(lp875
g380
ag377
aa(lp876
g116
ag113
aa(lp877
g447
ag444
aa(lp878
g618
ag615
aa(lp879
g469
ag466
aa(lp880
g186
ag183
aa(lp881
g57
ag53
aa(lp882
g458
ag455
aa(lp883
g175
ag172
aa(lp884
g629
ag626
aa(lp885
g391
ag388
aa(lp886
g105
ag102
aa(lp887
g607
ag604
aa(lp888
g71
ag68
aa(lp889
g78
ag32
aa(lp890
g89
ag91
aatp891
Rp892
sg146
g11
((lp893
(lp894
g296
ag287
aa(lp895
g569
ag560
aa(lp896
g342
ag333
aa(lp897
g768
ag759
aa(lp898
g159
ag150
aa(lp899
g739
ag730
aa(lp900
g410
ag401
aa(lp901
g205
ag196
aa(lp902
g219
ag210
aa(lp903
g233
ag224
aa(lp904
g433
ag424
aa(lp905
g488
ag479
aa(lp906
g502
ag493
aa(lp907
g662
ag653
aa(lp908
g648
ag639
aa(lp909
g16
ag805
aa(lp910
g247
ag238
aa(lp911
g676
ag667
aa(lp912
g516
ag507
aa(lp913
g827
ag818
aatp914
Rp915
sS'structs'
p916
g11
((lp917
(lp918
g282
ag280
aa(lp919
g555
ag553
aa(lp920
g328
ag326
aa(lp921
g754
ag752
aa(lp922
g142
ag139
aa(lp923
S'Ctb1'
p924
ag0
(g137
g2
Ntp925
Rp926
(dp927
g141
F1.0
sg8
g924
sg41
Nsg45
(lp928
g626
ag113
asg43
g44
sg60
S'solo-Ctb1'
p929
sg145
Nsg146
(lp930
g730
asg164
S'...........................'
p931
sbaa(lp932
g374
ag372
aa(lp933
g359
ag357
aa(lp934
g313
ag311
aa(lp935
g265
ag263
aa(lp936
g419
ag417
aa(lp937
g532
ag530
aa(lp938
g578
ag576
aa(lp939
g717
ag715
aa(lp940
g777
ag775
aa(lp941
g844
ag842
aa(lp942
g169
ag167
aa(lp943
S'Atb_Btr_Rtq_tqRtrBtbAta'
p944
ag0
(g137
g2
Ntp945
Rp946
(dp947
g141
F1.0
sg8
g944
sg41
Nsg45
(lp948
g388
ag113
ag102
ag444
ag455
ag466
ag472
ag461
ag450
ag99
ag110
ag394
ag383
asg43
g44
sg60
S'solo-Atb_Btr_Rtq_tqRtrBtbAta'
p949
sg145
Nsg146
(lp950
g424
ag479
ag493
ag507
asg164
S'(((((((((((((((((((((((((((+(((((((((((((((((((((((((((+(((((((((((((((((((((((((((+)))))))))))))))))))))))))))))))))))))))))))))))))))))))))))))))))))))))))))))))))......'
p951
sbaa(lp952
g601
ag599
aa(lp953
g800
ag798
aa(lp954
g257
ag255
aa(lp955
g305
ag303
aa(lp956
g441
ag439
aa(lp957
g540
ag538
aa(lp958
g685
ag683
aa(lp959
g701
ag699
aa(lp960
g725
ag723
aa(lp961
g785
ag783
aa(lp962
g351
ag349
aa(lp963
g586
ag584
aa(lp964
g836
ag834
aatp965
Rp966
sS'output_structs'
p967
(lp968
NaNasS'output_seqs'
p969
(lp970
g626
ag91
asbaatp971
Rp972
sg83
(lp973
sg85
g11
((lp974
(lp975
S'solo-dtg'
p976
ag32
aa(lp977
S'solo-tbb'
p978
ag91
aatp979
Rp980
sg127
g11
((lp981
(lp982
S'solo-Kin0'
p983
ag133
aa(lp984
S'solo-Kin1'
p985
ag276
aa(lp986
S'solo-Kin2'
p987
ag322
aa(lp988
S'solo-Kin3'
p989
ag368
aa(lp990
S'solo-Kin4'
p991
ag525
aa(lp992
S'solo-Kin5'
p993
ag549
aa(lp994
S'solo-Kin6'
p995
ag595
aa(lp996
S'solo-Kin7'
p997
ag694
aa(lp998
S'solo-Kin8'
p999
ag710
aa(lp1000
S'solo-Kin9'
p1001
ag748
aa(lp1002
S'solo-Kin10'
p1003
ag794
aatp1004
Rp1005
sS'includes'
p1006
NsS'signals'
p1007
g11
((lp1008
(lp1009
g14
a(lp1010
(g32
g24
I00
tp1011
aaa(lp1012
g16
a(lp1013
(g626
g24
I00
tp1014
aaa(lp1015
g18
a(lp1016
(g91
g24
I00
tp1017
aaatp1018
Rp1019
sg43
S''
p1020
sg967
(lp1021
sS'template'
p1022
g11
((lp1023
(lp1024
S'plato_2_0'
p1025
ag1025
aatp1026
Rp1027
sS'signal_structs'
p1028
cpeppercompiler.utils
default_ordered_dict
p1029
((lp1030
(lp1031
g16
a(lp1032
Naaa(lp1033
g18
a(lp1034
Naaatp1035
Rp1036
(dp1037
S'default'
p1038
c__builtin__
list
p1039
sS'call'
p1040
I01
sbsg76
g11
((lp1041
(lp1042
S'solo-ta'
p1043
ag377
aa(lp1044
S'solo-tb'
p1045
ag113
aa(lp1046
S'solo-tr'
p1047
ag444
aa(lp1048
S'solo-tc'
p1049
ag615
aa(lp1050
S'solo-tq'
p1051
ag466
aa(lp1052
S'solo-td'
p1053
ag183
aa(lp1054
S'solo-tg'
p1055
ag53
aa(lp1056
S'solo-r'
p1057
ag455
aa(lp1058
S'solo-n'
p1059
ag172
aa(lp1060
S'solo-c'
p1061
ag626
aa(lp1062
S'solo-a'
p1063
ag388
aa(lp1064
S'solo-b'
p1065
ag102
aa(lp1066
S'solo-i'
p1067
ag604
aa(lp1068
S'solo-d'
p1069
ag68
aa(lp1070
S'solo-dtg'
p1071
ag32
aa(lp1072
S'solo-tbb'
p1073
ag91
aatp1074
Rp1075
sS'path'
p1076
S'.'
p1077
sg45
g11
((lp1078
(lp1079
S'solo-ta'
p1080
ag377
aa(lp1081
S'solo-tb'
p1082
ag113
aa(lp1083
S'solo-tr'
p1084
ag444
aa(lp1085
S'solo-tc'
p1086
ag615
aa(lp1087
S'solo-tq'
p1088
ag466
aa(lp1089
S'solo-td'
p1090
ag183
aa(lp1091
S'solo-tg'
p1092
ag53
aa(lp1093
S'solo-r'
p1094
ag455
aa(lp1095
S'solo-n'
p1096
ag172
aa(lp1097
S'solo-c'
p1098
ag626
aa(lp1099
S'solo-a'
p1100
ag388
aa(lp1101
S'solo-b'
p1102
ag102
aa(lp1103
S'solo-i'
p1104
ag604
aa(lp1105
S'solo-d'
p1106
ag68
aatp1107
Rp1108
sg146
g11
((lp1109
(lp1110
S'solo-Btd'
p1111
ag287
aa(lp1112
S'solo-trR'
p1113
ag560
aa(lp1114
S'solo-Ntb'
p1115
ag333
aa(lp1116
S'solo-Itc'
p1117
ag759
aa(lp1118
S'solo-Dtg'
p1119
ag150
aa(lp1120
S'solo-Ctb'
p1121
ag730
aa(lp1122
S'solo-taA'
p1123
ag401
aa(lp1124
S'solo-N'
p1125
ag196
aa(lp1126
S'solo-tbB'
p1127
ag210
aa(lp1128
S'solo-tdD'
p1129
ag224
aa(lp1130
S'solo-Atb'
p1131
ag424
aa(lp1132
S'solo-Btr'
p1133
ag479
aa(lp1134
S'solo-Rtq'
p1135
ag493
aa(lp1136
S'solo-tcC'
p1137
ag653
aa(lp1138
S'solo-I'
p1139
ag639
aa(lp1140
S'solo-C'
p1141
ag805
aa(lp1142
S'solo-comp_tgDtdBtbN'
p1143
ag238
aa(lp1144
S'solo-comp_tqRtrBtbCtcI'
p1145
ag667
aa(lp1146
S'solo-comp_tqRtrBtbAta'
p1147
ag507
aa(lp1148
S'solo-comp_Ctc'
p1149
ag818
aatp1150
Rp1151
sg916
g11
((lp1152
(lp1153
S'solo-Btd1'
p1154
ag280
aa(lp1155
S'solo-trR1'
p1156
ag553
aa(lp1157
S'solo-Ntb1'
p1158
ag326
aa(lp1159
S'solo-Itc1'
p1160
ag752
aa(lp1161
S'solo-Dtg1'
p1162
ag139
aa(lp1163
S'solo-Ctb1'
p1164
ag926
aa(lp1165
S'solo-taA1'
p1166
ag372
aa(lp1167
S'solo-N1'
p1168
ag357
aa(lp1169
S'solo-tbB1'
p1170
ag311
aa(lp1171
S'solo-tdD1'
p1172
ag263
aa(lp1173
S'solo-Atb1'
p1174
ag417
aa(lp1175
S'solo-Btr1'
p1176
ag530
aa(lp1177
S'solo-Rtq1'
p1178
ag576
aa(lp1179
S'solo-tcC1'
p1180
ag715
aa(lp1181
S'solo-I1'
p1182
ag775
aa(lp1183
S'solo-C1'
p1184
ag842
aa(lp1185
S'solo-N_tbB_tdD_tgDtdBtbN'
p1186
ag167
aa(lp1187
S'solo-Atb_Btr_Rtq_tqRtrBtbAta'
p1188
ag946
aa(lp1189
S'solo-I_tcC_tbB_trR_tqRtrBtbCtcI'
p1190
ag599
aa(lp1191
S'solo-C_Ctc'
p1192
ag798
aa(lp1193
S'solo-N_tbB_Dtg_tgDtdBtbN'
p1194
ag255
aa(lp1195
S'solo-N_Btd_Dtg_tgDtdBtbN'
p1196
ag303
aa(lp1197
S'solo-taA_Btr_Rtq_tqRtrBtbAta'
p1198
ag439
aa(lp1199
S'solo-taA_tbB_Rtq_tqRtrBtbAta'
p1200
ag538
aa(lp1201
S'solo-I_tcC_tbB_Rtq_tqRtrBtbCtcI'
p1202
ag683
aa(lp1203
S'solo-I_tcC_Btr_Rtq_tqRtrBtbCtcI'
p1204
ag699
aa(lp1205
S'solo-I_Ctb_Btr_Rtq_tqRtrBtbCtcI'
p1206
ag723
aa(lp1207
S'solo-Itc_Ctb_Btr_Rtq_tqRtrBtbCtcI'
p1208
ag783
aa(lp1209
S'solo-Ntb_Btd_Dtg_tgDtdBtbN'
p1210
ag349
aa(lp1211
S'solo-taA_tbB_trR_tqRtrBtbAta'
p1212
ag584
aa(lp1213
S'solo-tcC_Ctc'
p1214
ag834
aatp1215
Rp1216
sS'signal_dummy_structs'
p1217
g1029
((lp1218
tp1219
Rp1220
(dp1221
g1038
g1039
sg1040
I01
sbsg969
(lp1222
sb.